; Function Attrs: nounwind uwtable
define internal fastcc range(i32 -1, 1) i32 @php_cli_server_dispatch_script(ptr noundef captures(none) %0, ptr noundef %1) unnamed_addr #0 {
  %3 = alloca %struct._zend_file_handle, align 8
  %4 = alloca [1 x %struct.__jmp_buf_tag], align 16
  %5 = getelementptr inbounds nuw i8, ptr %1, i64 144
  %6 = load ptr, ptr %5, align 8, !tbaa !177
  %7 = call i64 @strlen(ptr noundef nonnull dereferenceable(1) %6) #30
  %8 = getelementptr inbounds nuw i8, ptr %1, i64 152
  %9 = load i64, ptr %8, align 8, !tbaa !193
  %.not = icmp eq i64 %7, %9
  br i1 %.not, label %12, label %10

10:                                               ; preds = %2
  %11 = call fastcc i32 @php_cli_server_send_error_page(ptr noundef %0, ptr noundef nonnull %1, i32 noundef 400)
  br label %22

12:                                               ; preds = %2
  call void @llvm.lifetime.start.p0(i64 80, ptr nonnull %3) #29
  %13 = load ptr, ptr getelementptr inbounds nuw (i8, ptr @sapi_globals, i64 40), align 8, !tbaa !111
  call void @zend_stream_init_filename(ptr noundef nonnull %3, ptr noundef %13) #29
  %14 = getelementptr inbounds nuw i8, ptr %3, i64 57
  store i8 1, ptr %14, align 1, !tbaa !223
  %15 = load ptr, ptr getelementptr inbounds nuw (i8, ptr @executor_globals, i64 416), align 8, !tbaa !225
  call void @llvm.lifetime.start.p0(i64 200, ptr nonnull %4) #29
  store ptr %4, ptr getelementptr inbounds nuw (i8, ptr @executor_globals, i64 416), align 8, !tbaa !225
  %16 = call i32 @__sigsetjmp(ptr noundef nonnull %4, i32 noundef 0) #38
  %17 = icmp eq i32 %16, 0
  br i1 %17, label %18, label %20

18:                                               ; preds = %12
  %19 = call zeroext i1 @php_execute_script(ptr noundef nonnull %3) #29
  br label %20

20:                                               ; preds = %18, %12
  store ptr %15, ptr getelementptr inbounds nuw (i8, ptr @executor_globals, i64 416), align 8, !tbaa !225
  call void @llvm.lifetime.end.p0(i64 200, ptr nonnull %4) #29
  call void @zend_destroy_file_handle(ptr noundef nonnull %3) #29
  %21 = load i32, ptr getelementptr inbounds nuw (i8, ptr @sapi_globals, i64 216), align 8, !tbaa !90
  call fastcc void @php_cli_server_log_response(ptr noundef nonnull %1, i32 noundef %21, ptr noundef null)
  call void @llvm.lifetime.end.p0(i64 80, ptr nonnull %3) #29
  br label %22

22:                                               ; preds = %20, %10
  %.0 = phi i32 [ %11, %10 ], [ 0, %20 ]
  ret i32 %.0
}